# SymbolsHelper-Confirmed: 21.08.0 alpha amd64 arm64 armel armhf hppa hurd-i386 i386 ia64 m68k mips64el mipsel powerpc ppc64 ppc64el riscv64 s390x x32
libKF5Sane.so.5 libkf5sane5 #MINVER#
* Build-Depends-Package: libkf5sane-dev
 _ZN10KSaneIface11KSaneOption11qt_metacallEN11QMetaObject4CallEiPPv@Base 21.08.0
 _ZN10KSaneIface11KSaneOption11qt_metacastEPKc@Base 21.08.0
 _ZN10KSaneIface11KSaneOption12valueChangedERK8QVariant@Base 21.08.0
 _ZN10KSaneIface11KSaneOption14optionReloadedEv@Base 21.08.0
 _ZN10KSaneIface11KSaneOption16restoreSavedDataEv@Base 21.08.0
 _ZN10KSaneIface11KSaneOption16staticMetaObjectE@Base 21.08.0
 _ZN10KSaneIface11KSaneOption16storeCurrentDataEv@Base 21.08.0
 _ZN10KSaneIface11KSaneOption8setValueERK8QVariant@Base 21.08.0
 _ZN10KSaneIface11KSaneOptionC1EP7QObject@Base 21.08.0
 _ZN10KSaneIface11KSaneOptionC2EP7QObject@Base 21.08.0
 _ZN10KSaneIface11KSaneOptionD0Ev@Base 21.08.0
 _ZN10KSaneIface11KSaneOptionD1Ev@Base 21.08.0
 _ZN10KSaneIface11KSaneOptionD2Ev@Base 21.08.0
 _ZN10KSaneIface11KSaneWidget10currentDPIEv@Base 4.3.4
 _ZN10KSaneIface11KSaneWidget10getOptValsER4QMapI7QStringS2_E@Base 4.3.4
 _ZN10KSaneIface11KSaneWidget10imageReadyER10QByteArrayiiii@Base 4.3.4
 _ZN10KSaneIface11KSaneWidget10openDeviceERK7QString@Base 4.3.4
 _ZN10KSaneIface11KSaneWidget10scanCancelEv@Base 4.3.4
 _ZN10KSaneIface11KSaneWidget10setOptValsERK4QMapI7QStringS2_E@Base 4.3.4
 _ZN10KSaneIface11KSaneWidget11closeDeviceEv@Base 4.3.4
 _ZN10KSaneIface11KSaneWidget11qt_metacallEN11QMetaObject4CallEiPPv@Base 4.3.4
 _ZN10KSaneIface11KSaneWidget11qt_metacastEPKc@Base 4.3.4
 _ZN10KSaneIface11KSaneWidget11userMessageEiRK7QString@Base 4.7.1
 _ZN10KSaneIface11KSaneWidget12scanProgressEi@Base 4.3.4
 _ZN10KSaneIface11KSaneWidget12selectDeviceEP7QWidget@Base 4.3.4
 _ZN10KSaneIface11KSaneWidget12setSelectionE7QPointFS1_@Base 4.4.1
 _ZN10KSaneIface11KSaneWidget13buttonPressedERK7QStringS3_b@Base 4.8.4
 _ZN10KSaneIface11KSaneWidget13scanAreaWidthEv@Base 4.4.1
 _ZN10KSaneIface11KSaneWidget14scanAreaHeightEv@Base 4.4.1
 _ZN10KSaneIface11KSaneWidget14toQImageSilentERK10QByteArrayiiiNS0_11ImageFormatE@Base 4.5.90
 _ZN10KSaneIface11KSaneWidget14toQImageSilentERK10QByteArrayiiiiNS0_11ImageFormatE@Base 19.08.1
 _ZN10KSaneIface11KSaneWidget16availableDevicesERK5QListINS0_10DeviceInfoEE@Base 4.7.1
 _ZN10KSaneIface11KSaneWidget16enableAutoSelectEb@Base 4.3.4
 _ZN10KSaneIface11KSaneWidget16startPreviewScanEv@Base 19.08.1
 _ZN10KSaneIface11KSaneWidget16staticMetaObjectE@Base 4.3.4
 _ZN10KSaneIface11KSaneWidget17scannedImageReadyERK6QImage@Base 21.08.0
 _ZN10KSaneIface11KSaneWidget17setScanButtonTextERK7QString@Base 4.3.4
 _ZN10KSaneIface11KSaneWidget19setOptionsCollapsedEb@Base 4.4.1
 _ZN10KSaneIface11KSaneWidget19setScanButtonHiddenEb@Base 4.4.1
 _ZN10KSaneIface11KSaneWidget20setPreviewButtonTextERK7QString@Base 4.3.4
 _ZN10KSaneIface11KSaneWidget20setPreviewResolutionEf@Base 4.4.1
 _ZN10KSaneIface11KSaneWidget23openedDeviceInfoUpdatedERK7QStringS3_S3_@Base 21.08.0
 _ZN10KSaneIface11KSaneWidget8scanDoneEiRK7QString@Base 4.3.4
 _ZN10KSaneIface11KSaneWidget8toQImageERK10QByteArrayiiiNS0_11ImageFormatE@Base 4.3.4
 _ZN10KSaneIface11KSaneWidget9getOptValERK7QStringRS1_@Base 4.3.4
 _ZN10KSaneIface11KSaneWidget9scanFinalEv@Base 4.3.4
 _ZN10KSaneIface11KSaneWidget9setOptValERK7QStringS3_@Base 4.3.4
 _ZN10KSaneIface11KSaneWidgetC1EP7QWidget@Base 4.3.4
 _ZN10KSaneIface11KSaneWidgetC2EP7QWidget@Base 4.3.4
 _ZN10KSaneIface11KSaneWidgetD0Ev@Base 4.3.4
 _ZN10KSaneIface11KSaneWidgetD1Ev@Base 4.3.4
 _ZN10KSaneIface11KSaneWidgetD2Ev@Base 4.3.4
 _ZN10KSaneIface9KSaneCore10openDeviceERK7QString@Base 21.08.0
 _ZN10KSaneIface9KSaneCore11closeDeviceEv@Base 21.08.0
 _ZN10KSaneIface9KSaneCore11qt_metacallEN11QMetaObject4CallEiPPv@Base 21.08.0
 _ZN10KSaneIface9KSaneCore11qt_metacastEPKc@Base 21.08.0
 _ZN10KSaneIface9KSaneCore11userMessageENS0_15KSaneScanStatusERK7QString@Base 21.08.0
 _ZN10KSaneIface9KSaneCore12scanFinishedENS0_15KSaneScanStatusERK7QString@Base 21.08.0
 _ZN10KSaneIface9KSaneCore12scanProgressEi@Base 21.08.0
 _ZN10KSaneIface9KSaneCore13buttonPressedERK7QStringS3_b@Base 21.08.0
 _ZN10KSaneIface9KSaneCore13getOptionsMapEv@Base 21.08.0
 _ZN10KSaneIface9KSaneCore13lockScanImageEv@Base 21.08.0
 _ZN10KSaneIface9KSaneCore13setOptionsMapERK4QMapI7QStringS2_E@Base 21.08.0
 _ZN10KSaneIface9KSaneCore14getOptionsListEv@Base 21.08.0
 _ZN10KSaneIface9KSaneCore15unlockScanImageEv@Base 21.08.0
 _ZN10KSaneIface9KSaneCore16availableDevicesERK5QListINS0_10DeviceInfoEE@Base 21.08.0
 _ZN10KSaneIface9KSaneCore16staticMetaObjectE@Base 21.08.0
 _ZN10KSaneIface9KSaneCore17reloadDevicesListEv@Base 21.08.0
 _ZN10KSaneIface9KSaneCore17scannedImageReadyERK6QImage@Base 21.08.0
 _ZN10KSaneIface9KSaneCore20openRestrictedDeviceERK7QStringS1_S1_@Base 21.08.0
 _ZN10KSaneIface9KSaneCore23openedDeviceInfoUpdatedERK7QStringS3_S3_@Base 21.08.0
 _ZN10KSaneIface9KSaneCore8stopScanEv@Base 21.08.0
 _ZN10KSaneIface9KSaneCore9getOptionE7QString@Base 21.08.0
 _ZN10KSaneIface9KSaneCore9getOptionENS0_15KSaneOptionNameE@Base 21.08.0
 _ZN10KSaneIface9KSaneCore9startScanEv@Base 21.08.0
 _ZN10KSaneIface9KSaneCoreC1EP7QObject@Base 21.08.0
 _ZN10KSaneIface9KSaneCoreC2EP7QObject@Base 21.08.0
 _ZN10KSaneIface9KSaneCoreD0Ev@Base 21.08.0
 _ZN10KSaneIface9KSaneCoreD1Ev@Base 21.08.0
 _ZN10KSaneIface9KSaneCoreD2Ev@Base 21.08.0
 _ZNK10KSaneIface11KSaneOption10metaObjectEv@Base 21.08.0
 _ZNK10KSaneIface11KSaneOption11descriptionEv@Base 21.08.0
 _ZNK10KSaneIface11KSaneOption12maximumValueEv@Base 21.08.0
 _ZNK10KSaneIface11KSaneOption12minimumValueEv@Base 21.08.0
 _ZNK10KSaneIface11KSaneOption4nameEv@Base 21.08.0
 _ZNK10KSaneIface11KSaneOption4typeEv@Base 21.08.0
 _ZNK10KSaneIface11KSaneOption5stateEv@Base 21.08.0
 _ZNK10KSaneIface11KSaneOption5titleEv@Base 21.08.0
 _ZNK10KSaneIface11KSaneOption5valueEv@Base 21.08.0
 _ZNK10KSaneIface11KSaneOption9stepValueEv@Base 21.08.0
 _ZNK10KSaneIface11KSaneOption9valueListEv@Base 21.08.0
 _ZNK10KSaneIface11KSaneOption9valueSizeEv@Base 21.08.0
 _ZNK10KSaneIface11KSaneOption9valueUnitEv@Base 21.08.0
 _ZNK10KSaneIface11KSaneWidget10deviceNameEv@Base 21.08.0
 _ZNK10KSaneIface11KSaneWidget10metaObjectEv@Base 4.3.4
 _ZNK10KSaneIface11KSaneWidget11deviceModelEv@Base 21.08.0
 _ZNK10KSaneIface11KSaneWidget12deviceVendorEv@Base 21.08.0
 _ZNK10KSaneIface11KSaneWidget17initGetDeviceListEv@Base 4.7.1
 _ZNK10KSaneIface11KSaneWidget4makeEv@Base 4.3.4
 _ZNK10KSaneIface11KSaneWidget5modelEv@Base 4.3.4
 _ZNK10KSaneIface11KSaneWidget6vendorEv@Base 4.3.4
 _ZNK10KSaneIface9KSaneCore10deviceNameEv@Base 21.08.0
 _ZNK10KSaneIface9KSaneCore10metaObjectEv@Base 21.08.0
 _ZNK10KSaneIface9KSaneCore11deviceModelEv@Base 21.08.0
 _ZNK10KSaneIface9KSaneCore12deviceVendorEv@Base 21.08.0
 _ZNK10KSaneIface9KSaneCore9scanImageEv@Base 21.08.0
 _ZTIN10KSaneIface11KSaneOptionE@Base 21.08.0
 _ZTIN10KSaneIface11KSaneWidgetE@Base 4.3.4
 _ZTIN10KSaneIface9KSaneCoreE@Base 21.08.0
 _ZTSN10KSaneIface11KSaneOptionE@Base 21.08.0
 _ZTSN10KSaneIface11KSaneWidgetE@Base 4.3.4
 _ZTSN10KSaneIface9KSaneCoreE@Base 21.08.0
 _ZTVN10KSaneIface11KSaneOptionE@Base 21.08.0
 _ZTVN10KSaneIface11KSaneWidgetE@Base 4.3.4
 _ZTVN10KSaneIface9KSaneCoreE@Base 21.08.0
 (c++)"non-virtual thunk to KSaneIface::KSaneWidget::~KSaneWidget()@Base" 4.3.4
